(dp0
S'shot'
p1
I0
sS'show_vehicle'
p2
I1
sS'battery'
p3
S'397'
p4
sS'show_js'
p5
I1
sS'rate'
p6
I8
sS'm1_rpm'
p7
S'0'
p8
sS'm2_rpm'
p9
g8
sS'm3_rpm'
p10
g8
sS'current_state_index'
p11
I1
sS'Axis_3'
p12
I128
sS'Axis_0'
p13
I128
sS'Axis_1'
p14
I128
sS'Axis_2'
p15
I128
sS'speed_mode'
p16
I3
s.